; Function Attrs: mustprogress nounwind uwtable
define noundef i64 @_ZN8proxygen11HTTPSession12sendPriorityEPNS_15HTTPTransactionERKNS_5http214PriorityUpdateE(ptr noundef nonnull align 8 dereferenceable(2504) %this, ptr nocapture noundef readonly %txn, ptr nocapture noundef nonnull readonly align 8 dereferenceable(16) %pri) unnamed_addr #4 align 2 personality ptr @__gxx_personality_v0 {
entry:
  %id_.i = getelementptr inbounds i8, ptr %txn, i64 248
  %0 = load i64, ptr %id_.i, align 8
  %agg.tmp.sroa.0.0.copyload = load i64, ptr %pri, align 8
  %agg.tmp.sroa.2.0..sroa_idx = getelementptr inbounds i8, ptr %pri, i64 8
  %agg.tmp.sroa.2.0.copyload = load i64, ptr %agg.tmp.sroa.2.0..sroa_idx, align 8
  %call3 = invoke noundef i64 @_ZN8proxygen11HTTPSession16sendPriorityImplEmNS_5http214PriorityUpdateE(ptr noundef nonnull align 8 dereferenceable(2504) %this, i64 noundef %0, i64 %agg.tmp.sroa.0.0.copyload, i64 %agg.tmp.sroa.2.0.copyload)
          to label %invoke.cont2 unwind label %terminate.lpad

invoke.cont2:                                     ; preds = %entry
  ret i64 %call3

terminate.lpad:                                   ; preds = %entry
  %1 = landingpad { ptr, i32 }
          catch ptr null
  %2 = extractvalue { ptr, i32 } %1, 0
  tail call void @__clang_call_terminate(ptr %2) #40
  unreachable
}